; Function Attrs: nounwind uwtable
define internal void @SDL_PlayerLEDHintChanged(ptr noundef captures(none) %0, ptr readnone captures(none) %1, ptr readnone captures(none) %2, ptr noundef %3) #0 {
  %5 = alloca [3 x i8], align 2
  %6 = alloca [3 x i8], align 2
  %7 = tail call zeroext i1 @SDL_GetStringBoolean(ptr noundef %3, i1 noundef zeroext true) #9
  %8 = getelementptr inbounds nuw i8, ptr %0, i64 20
  %9 = load i8, ptr %8, align 4, !range !3, !noundef !4
  %10 = zext i1 %7 to i8
  %.not = icmp eq i8 %9, %10
  br i1 %.not, label %31, label %11

11:                                               ; preds = %4
  store i8 %10, ptr %8, align 4
  br i1 %7, label %12, label %24

12:                                               ; preds = %11
  %13 = getelementptr inbounds nuw i8, ptr %0, i64 16
  %14 = load i32, ptr %13, align 8
  %15 = icmp sgt i32 %14, -1
  br i1 %15, label %16, label %24

16:                                               ; preds = %12
  %17 = load ptr, ptr %0, align 8
  %18 = getelementptr inbounds nuw i8, ptr %17, i64 128
  %19 = load ptr, ptr %18, align 8
  %20 = trunc i32 %14 to i8
  %21 = and i8 %20, 3
  %narrow.i.i = add nuw nsw i8 %21, 6
  call void @llvm.lifetime.start.p0(i64 3, ptr nonnull %6) #9
  store i16 769, ptr %6, align 2
  %22 = getelementptr inbounds nuw i8, ptr %6, i64 2
  store i8 %narrow.i.i, ptr %22, align 2
  %23 = call i32 @SDL_hid_write_REAL(ptr noundef %19, ptr noundef nonnull %6, i64 noundef 3) #9
  call void @llvm.lifetime.end.p0(i64 3, ptr nonnull %6) #9
  br label %UpdateSlotLED.exit

24:                                               ; preds = %12, %11
  %25 = load ptr, ptr %0, align 8
  %26 = getelementptr inbounds nuw i8, ptr %25, i64 128
  %27 = load ptr, ptr %26, align 8
  call void @llvm.lifetime.start.p0(i64 3, ptr nonnull %5) #9
  store i16 769, ptr %5, align 2
  %28 = getelementptr inbounds nuw i8, ptr %5, i64 2
  store i8 0, ptr %28, align 2
  %29 = call i32 @SDL_hid_write_REAL(ptr noundef %27, ptr noundef nonnull %5, i64 noundef 3) #9
  call void @llvm.lifetime.end.p0(i64 3, ptr nonnull %5) #9
  br label %UpdateSlotLED.exit

UpdateSlotLED.exit:                               ; preds = %16, %24
  %30 = load ptr, ptr %0, align 8
  call void @HIDAPI_UpdateDeviceProperties(ptr noundef %30) #9
  br label %31

31:                                               ; preds = %UpdateSlotLED.exit, %4
  ret void
}